target datalayout = "e-m:e-p270:32:32-p271:32:32-p272:64:64-i64:64-i128:128-f80:128-n8:16:32:64-S128"
target triple = "x86_64-pc-linux-gnu"

%struct._typeobject = type { %struct.PyVarObject, ptr, i64, i64, ptr, i64, ptr, ptr, ptr, ptr, ptr, ptr, ptr, ptr, ptr, ptr, ptr, ptr, ptr, i64, ptr, ptr, ptr, ptr, i64, ptr, ptr, ptr, ptr, ptr, ptr, ptr, ptr, ptr, i64, ptr, ptr, ptr, ptr, ptr, ptr, ptr, ptr, ptr, ptr, ptr, i32, ptr, ptr, i8, i16 }
%struct.PyVarObject = type { %struct._object, i64 }
%struct._object = type { %union.anon, ptr }
%union.anon = type { i64 }
%struct._PyNamespaceObject = type { %struct._object, ptr }
%struct.anon = type { i32, i32 }

@PyDict_Type = external global %struct._typeobject, align 8

; Function Attrs: alwaysinline nounwind uwtable
define internal i32 @_Py_IsImmortal(ptr noundef %0) #3 {
  %2 = alloca ptr, align 8
  store ptr %0, ptr %2, align 8, !tbaa !10
  %3 = load ptr, ptr %2, align 8, !tbaa !10
  %4 = getelementptr inbounds nuw %struct._object, ptr %3, i32 0, i32 0
  %5 = getelementptr inbounds nuw %struct.anon, ptr %4, i32 0, i32 0
  %6 = load i32, ptr %5, align 8, !tbaa !33
  %7 = icmp slt i32 %6, 0
  %8 = zext i1 %7 to i32
  ret i32 %8
}

; Function Attrs: alwaysinline nounwind uwtable
define internal void @Py_INCREF(ptr noundef %0) #3 {
  %2 = alloca ptr, align 8
  %3 = alloca i32, align 4
  %4 = alloca i32, align 4
  store ptr %0, ptr %2, align 8, !tbaa !10
  call void @llvm.lifetime.start.p0(i64 4, ptr %3) #5
  %5 = load ptr, ptr %2, align 8, !tbaa !10
  %6 = getelementptr inbounds nuw %struct._object, ptr %5, i32 0, i32 0
  %7 = getelementptr inbounds nuw %struct.anon, ptr %6, i32 0, i32 0
  %8 = load i32, ptr %7, align 8, !tbaa !33
  store i32 %8, ptr %3, align 4, !tbaa !24
  %9 = load i32, ptr %3, align 4, !tbaa !24
  %10 = icmp slt i32 %9, 0
  br i1 %10, label %11, label %12

11:                                               ; preds = %1
  store i32 1, ptr %4, align 4
  br label %18

12:                                               ; preds = %1
  %13 = load i32, ptr %3, align 4, !tbaa !24
  %14 = add i32 %13, 1
  %15 = load ptr, ptr %2, align 8, !tbaa !10
  %16 = getelementptr inbounds nuw %struct._object, ptr %15, i32 0, i32 0
  %17 = getelementptr inbounds nuw %struct.anon, ptr %16, i32 0, i32 0
  store i32 %14, ptr %17, align 8, !tbaa !33
  store i32 0, ptr %4, align 4
  br label %18

18:                                               ; preds = %12, %11
  call void @llvm.lifetime.end.p0(i64 4, ptr %3) #5
  %19 = load i32, ptr %4, align 4
  switch i32 %19, label %21 [
    i32 0, label %20
    i32 1, label %20
  ]

20:                                               ; preds = %18, %18
  ret void

21:                                               ; preds = %18
  unreachable
}

; Function Attrs: alwaysinline nounwind uwtable
define internal void @Py_DECREF(ptr noundef %0) #3 {
  %2 = alloca ptr, align 8
  store ptr %0, ptr %2, align 8, !tbaa !10
  %3 = load ptr, ptr %2, align 8, !tbaa !10
  %4 = call i32 @_Py_IsImmortal(ptr noundef %3)
  %5 = icmp ne i32 %4, 0
  br i1 %5, label %6, label %7

6:                                                ; preds = %1
  br label %16

7:                                                ; preds = %1
  %8 = load ptr, ptr %2, align 8, !tbaa !10
  %9 = getelementptr inbounds nuw %struct._object, ptr %8, i32 0, i32 0
  %10 = getelementptr inbounds nuw %struct.anon, ptr %9, i32 0, i32 0
  %11 = load i32, ptr %10, align 8, !tbaa !33
  %12 = add i32 %11, -1
  store i32 %12, ptr %10, align 8, !tbaa !33
  %13 = icmp eq i32 %12, 0
  br i1 %13, label %14, label %16

14:                                               ; preds = %7
  %15 = load ptr, ptr %2, align 8, !tbaa !10
  call void @_Py_Dealloc(ptr noundef %15)
  br label %16

16:                                               ; preds = %6, %14, %7
  ret void
}

; Function Attrs: inlinehint nounwind uwtable
define internal ptr @_Py_NewRef(ptr noundef %0) #4 {
  %2 = alloca ptr, align 8
  store ptr %0, ptr %2, align 8, !tbaa !10
  %3 = load ptr, ptr %2, align 8, !tbaa !10
  call void @Py_INCREF(ptr noundef %3)
  %4 = load ptr, ptr %2, align 8, !tbaa !10
  ret ptr %4
}

; Function Attrs: inlinehint nounwind uwtable
define internal i32 @Py_IS_TYPE(ptr noundef %0, ptr noundef %1) #4 {
  %3 = alloca ptr, align 8
  %4 = alloca ptr, align 8
  store ptr %0, ptr %3, align 8, !tbaa !10
  store ptr %1, ptr %4, align 8, !tbaa !31
  %5 = load ptr, ptr %3, align 8, !tbaa !10
  %6 = call ptr @_Py_TYPE(ptr noundef %5)
  %7 = load ptr, ptr %4, align 8, !tbaa !31
  %8 = icmp eq ptr %6, %7
  %9 = zext i1 %8 to i32
  ret i32 %9
}

; Function Attrs: inlinehint nounwind uwtable
define internal ptr @_Py_TYPE(ptr noundef %0) #4 {
  %2 = alloca ptr, align 8
  store ptr %0, ptr %2, align 8, !tbaa !10
  %3 = load ptr, ptr %2, align 8, !tbaa !10
  %4 = getelementptr inbounds nuw %struct._object, ptr %3, i32 0, i32 1
  %5 = load ptr, ptr %4, align 8, !tbaa !34
  ret ptr %5
}

; Function Attrs: nounwind uwtable
define internal i32 @namespace_init(ptr noundef %0, ptr noundef %1, ptr noundef %2) #0 {
  %4 = alloca i32, align 4
  %5 = alloca ptr, align 8
  %6 = alloca ptr, align 8
  %7 = alloca ptr, align 8
  %8 = alloca ptr, align 8
  %9 = alloca i32, align 4
  %10 = alloca ptr, align 8
  %11 = alloca i32, align 4
  store ptr %0, ptr %5, align 8, !tbaa !4
  store ptr %1, ptr %6, align 8, !tbaa !10
  store ptr %2, ptr %7, align 8, !tbaa !10
  call void @llvm.lifetime.start.p0(i64 8, ptr %8) #5
  store ptr null, ptr %8, align 8, !tbaa !10
  %12 = load ptr, ptr %6, align 8, !tbaa !10
  %13 = load ptr, ptr %5, align 8, !tbaa !4
  %14 = call ptr @_Py_TYPE(ptr noundef %13)
  %15 = call ptr @_PyType_Name(ptr noundef %14)
  %16 = call i32 (ptr, ptr, i64, i64, ...) @PyArg_UnpackTuple(ptr noundef %12, ptr noundef %15, i64 noundef 0, i64 noundef 1, ptr noundef %8)
  %17 = icmp ne i32 %16, 0
  br i1 %17, label %19, label %18

18:                                               ; preds = %3
  store i32 -1, ptr %4, align 4
  store i32 1, ptr %9, align 4
  br label %74

19:                                               ; preds = %3
  %20 = load ptr, ptr %8, align 8, !tbaa !10
  %21 = icmp ne ptr %20, null
  br i1 %21, label %22, label %59

22:                                               ; preds = %19
  call void @llvm.lifetime.start.p0(i64 8, ptr %10) #5
  %23 = load ptr, ptr %8, align 8, !tbaa !10
  %24 = call i32 @Py_IS_TYPE(ptr noundef %23, ptr noundef @PyDict_Type)
  %25 = icmp ne i32 %24, 0
  br i1 %25, label %26, label %29

26:                                               ; preds = %22
  %27 = load ptr, ptr %8, align 8, !tbaa !10
  %28 = call ptr @_Py_NewRef(ptr noundef %27)
  store ptr %28, ptr %10, align 8, !tbaa !10
  br label %36

29:                                               ; preds = %22
  %30 = load ptr, ptr %8, align 8, !tbaa !10
  %31 = call ptr @PyObject_CallOneArg(ptr noundef @PyDict_Type, ptr noundef %30)
  store ptr %31, ptr %10, align 8, !tbaa !10
  %32 = load ptr, ptr %10, align 8, !tbaa !10
  %33 = icmp eq ptr %32, null
  br i1 %33, label %34, label %35

34:                                               ; preds = %29
  store i32 -1, ptr %4, align 4
  store i32 1, ptr %9, align 4
  br label %56

35:                                               ; preds = %29
  br label %36

36:                                               ; preds = %35, %26
  call void @llvm.lifetime.start.p0(i64 4, ptr %11) #5
  %37 = load ptr, ptr %10, align 8, !tbaa !10
  %38 = call i32 @PyArg_ValidateKeywordArguments(ptr noundef %37)
  %39 = icmp ne i32 %38, 0
  br i1 %39, label %40, label %47

40:                                               ; preds = %36
  %41 = load ptr, ptr %5, align 8, !tbaa !4
  %42 = getelementptr inbounds nuw %struct._PyNamespaceObject, ptr %41, i32 0, i32 1
  %43 = load ptr, ptr %42, align 8, !tbaa !27
  %44 = load ptr, ptr %10, align 8, !tbaa !10
  %45 = call i32 @PyDict_Update(ptr noundef %43, ptr noundef %44)
  %46 = icmp slt i32 %45, 0
  br label %47

47:                                               ; preds = %40, %36
  %48 = phi i1 [ true, %36 ], [ %46, %40 ]
  %49 = zext i1 %48 to i32
  store i32 %49, ptr %11, align 4, !tbaa !24
  %50 = load ptr, ptr %10, align 8, !tbaa !10
  call void @Py_DECREF(ptr noundef %50)
  %51 = load i32, ptr %11, align 4, !tbaa !24
  %52 = icmp ne i32 %51, 0
  br i1 %52, label %53, label %54

53:                                               ; preds = %47
  store i32 -1, ptr %4, align 4
  store i32 1, ptr %9, align 4
  br label %55

54:                                               ; preds = %47
  store i32 0, ptr %9, align 4
  br label %55

55:                                               ; preds = %54, %53
  call void @llvm.lifetime.end.p0(i64 4, ptr %11) #5
  br label %56

56:                                               ; preds = %55, %34
  call void @llvm.lifetime.end.p0(i64 8, ptr %10) #5
  %57 = load i32, ptr %9, align 4
  switch i32 %57, label %74 [
    i32 0, label %58
  ]

58:                                               ; preds = %56
  br label %59

59:                                               ; preds = %58, %19
  %60 = load ptr, ptr %7, align 8, !tbaa !10
  %61 = icmp eq ptr %60, null
  br i1 %61, label %62, label %63

62:                                               ; preds = %59
  store i32 0, ptr %4, align 4
  store i32 1, ptr %9, align 4
  br label %74

63:                                               ; preds = %59
  %64 = load ptr, ptr %7, align 8, !tbaa !10
  %65 = call i32 @PyArg_ValidateKeywordArguments(ptr noundef %64)
  %66 = icmp ne i32 %65, 0
  br i1 %66, label %68, label %67

67:                                               ; preds = %63
  store i32 -1, ptr %4, align 4
  store i32 1, ptr %9, align 4
  br label %74

68:                                               ; preds = %63
  %69 = load ptr, ptr %5, align 8, !tbaa !4
  %70 = getelementptr inbounds nuw %struct._PyNamespaceObject, ptr %69, i32 0, i32 1
  %71 = load ptr, ptr %70, align 8, !tbaa !27
  %72 = load ptr, ptr %7, align 8, !tbaa !10
  %73 = call i32 @PyDict_Update(ptr noundef %71, ptr noundef %72)
  store i32 %73, ptr %4, align 4
  store i32 1, ptr %9, align 4
  br label %74

74:                                               ; preds = %68, %67, %62, %56, %18
  call void @llvm.lifetime.end.p0(i64 8, ptr %8) #5
  %75 = load i32, ptr %4, align 4
  ret i32 %75
}