; Function Attrs: nounwind uwtable
define internal i32 @namespace_init(ptr noundef readonly captures(none) %0, ptr noundef %1, ptr noundef %2) #0 {
  %4 = alloca ptr, align 8
  call void @llvm.lifetime.start.p0(i64 8, ptr nonnull %4) #3
  store ptr null, ptr %4, align 8, !tbaa !4
  %5 = getelementptr i8, ptr %0, i64 8
  %.val = load ptr, ptr %5, align 8, !tbaa !10
  %6 = tail call ptr @_PyType_Name(ptr noundef %.val) #3
  %7 = call i32 (ptr, ptr, i64, i64, ...) @PyArg_UnpackTuple(ptr noundef %1, ptr noundef %6, i64 noundef 0, i64 noundef 1, ptr noundef nonnull %4) #3
  %.not = icmp eq i32 %7, 0
  br i1 %.not, label %.critedge, label %8

8:                                                ; preds = %3
  %9 = load ptr, ptr %4, align 8, !tbaa !4
  %.not19 = icmp eq ptr %9, null
  br i1 %.not19, label %33, label %10

10:                                               ; preds = %8
  %11 = getelementptr i8, ptr %9, i64 8
  %.val23 = load ptr, ptr %11, align 8, !tbaa !10
  %.not24 = icmp eq ptr %.val23, @PyDict_Type
  br i1 %.not24, label %12, label %17

12:                                               ; preds = %10
  %13 = load i32, ptr %9, align 8, !tbaa !9
  %14 = icmp slt i32 %13, 0
  br i1 %14, label %_Py_NewRef.exit, label %15

15:                                               ; preds = %12
  %16 = add nuw i32 %13, 1
  store i32 %16, ptr %9, align 8, !tbaa !9
  br label %_Py_NewRef.exit

17:                                               ; preds = %10
  %18 = call ptr @PyObject_CallOneArg(ptr noundef nonnull @PyDict_Type, ptr noundef nonnull %9) #3
  %19 = icmp eq ptr %18, null
  br i1 %19, label %.critedge, label %_Py_NewRef.exit

_Py_NewRef.exit:                                  ; preds = %15, %12, %17
  %.013 = phi ptr [ %18, %17 ], [ %9, %12 ], [ %9, %15 ]
  %20 = call i32 @PyArg_ValidateKeywordArguments(ptr noundef nonnull %.013) #3
  %.not21 = icmp eq i32 %20, 0
  br i1 %.not21, label %26, label %21

21:                                               ; preds = %_Py_NewRef.exit
  %22 = getelementptr inbounds nuw i8, ptr %0, i64 16
  %23 = load ptr, ptr %22, align 8, !tbaa !24
  %24 = call i32 @PyDict_Update(ptr noundef %23, ptr noundef nonnull %.013) #3
  %25 = icmp sgt i32 %24, -1
  br label %26

26:                                               ; preds = %21, %_Py_NewRef.exit
  %27 = phi i1 [ false, %_Py_NewRef.exit ], [ %25, %21 ]
  %28 = load i32, ptr %.013, align 8, !tbaa !9
  %.not.i = icmp sgt i32 %28, -1
  br i1 %.not.i, label %29, label %Py_DECREF.exit

29:                                               ; preds = %26
  %30 = add nsw i32 %28, -1
  store i32 %30, ptr %.013, align 8, !tbaa !9
  %31 = icmp eq i32 %30, 0
  br i1 %31, label %32, label %Py_DECREF.exit

32:                                               ; preds = %29
  call void @_Py_Dealloc(ptr noundef nonnull %.013) #3
  br label %Py_DECREF.exit

Py_DECREF.exit:                                   ; preds = %26, %29, %32
  br i1 %27, label %33, label %.critedge

33:                                               ; preds = %Py_DECREF.exit, %8
  %34 = icmp eq ptr %2, null
  br i1 %34, label %.critedge, label %35

35:                                               ; preds = %33
  %36 = call i32 @PyArg_ValidateKeywordArguments(ptr noundef nonnull %2) #3
  %.not22 = icmp eq i32 %36, 0
  br i1 %.not22, label %.critedge, label %37

37:                                               ; preds = %35
  %38 = getelementptr inbounds nuw i8, ptr %0, i64 16
  %39 = load ptr, ptr %38, align 8, !tbaa !24
  %40 = call i32 @PyDict_Update(ptr noundef %39, ptr noundef nonnull %2) #3
  br label %.critedge

.critedge:                                        ; preds = %17, %35, %33, %3, %Py_DECREF.exit, %37
  %.0 = phi i32 [ %40, %37 ], [ -1, %Py_DECREF.exit ], [ -1, %3 ], [ 0, %33 ], [ -1, %35 ], [ -1, %17 ]
  call void @llvm.lifetime.end.p0(i64 8, ptr nonnull %4) #3
  ret i32 %.0
}